target datalayout = "e-m:e-p270:32:32-p271:32:32-p272:64:64-i64:64-i128:128-f80:128-n8:16:32:64-S128"
target triple = "x86_64-pc-linux-gnu"

%struct.mime_header_st = type { ptr, ptr, ptr }

@.str = private unnamed_addr constant [34 x i8] c"../openssl/crypto/asn1/asn_mime.c\00", align 1

; Function Attrs: inlinehint nounwind uwtable
define internal ptr @sk_MIME_PARAM_new(ptr noundef %0) #3 {
  %2 = alloca ptr, align 8
  store ptr %0, ptr %2, align 8, !tbaa !74
  %3 = load ptr, ptr %2, align 8, !tbaa !74
  %4 = call ptr @OPENSSL_sk_new(ptr noundef %3)
  ret ptr %4
}

; Function Attrs: nounwind uwtable
define internal ptr @mime_hdr_new(ptr noundef %0, ptr noundef %1) #0 {
  %3 = alloca ptr, align 8
  %4 = alloca ptr, align 8
  %5 = alloca ptr, align 8
  %6 = alloca ptr, align 8
  %7 = alloca ptr, align 8
  %8 = alloca ptr, align 8
  %9 = alloca ptr, align 8
  %10 = alloca i32, align 4
  store ptr %0, ptr %4, align 8, !tbaa !20
  store ptr %1, ptr %5, align 8, !tbaa !20
  call void @llvm.lifetime.start.p0(i64 8, ptr %6) #5
  store ptr null, ptr %6, align 8, !tbaa !60
  call void @llvm.lifetime.start.p0(i64 8, ptr %7) #5
  store ptr null, ptr %7, align 8, !tbaa !20
  call void @llvm.lifetime.start.p0(i64 8, ptr %8) #5
  store ptr null, ptr %8, align 8, !tbaa !20
  call void @llvm.lifetime.start.p0(i64 8, ptr %9) #5
  %11 = load ptr, ptr %4, align 8, !tbaa !20
  %12 = icmp ne ptr %11, null
  br i1 %12, label %13, label %35

13:                                               ; preds = %2
  %14 = load ptr, ptr %4, align 8, !tbaa !20
  %15 = call noalias ptr @CRYPTO_strdup(ptr noundef %14, ptr noundef @.str, i32 noundef 863)
  store ptr %15, ptr %7, align 8, !tbaa !20
  %16 = icmp eq ptr %15, null
  br i1 %16, label %17, label %18

17:                                               ; preds = %13
  store ptr null, ptr %3, align 8
  store i32 1, ptr %10, align 4
  br label %83

18:                                               ; preds = %13
  %19 = load ptr, ptr %7, align 8, !tbaa !20
  store ptr %19, ptr %9, align 8, !tbaa !20
  br label %20

20:                                               ; preds = %31, %18
  %21 = load ptr, ptr %9, align 8, !tbaa !20
  %22 = load i8, ptr %21, align 1, !tbaa !17
  %23 = icmp ne i8 %22, 0
  br i1 %23, label %24, label %34

24:                                               ; preds = %20
  %25 = load ptr, ptr %9, align 8, !tbaa !20
  %26 = load i8, ptr %25, align 1, !tbaa !17
  %27 = sext i8 %26 to i32
  %28 = call i32 @ossl_tolower(i32 noundef %27)
  %29 = trunc i32 %28 to i8
  %30 = load ptr, ptr %9, align 8, !tbaa !20
  store i8 %29, ptr %30, align 1, !tbaa !17
  br label %31

31:                                               ; preds = %24
  %32 = load ptr, ptr %9, align 8, !tbaa !20
  %33 = getelementptr inbounds nuw i8, ptr %32, i32 1
  store ptr %33, ptr %9, align 8, !tbaa !20
  br label %20, !llvm.loop !85

34:                                               ; preds = %20
  br label %35

35:                                               ; preds = %34, %2
  %36 = load ptr, ptr %5, align 8, !tbaa !20
  %37 = icmp ne ptr %36, null
  br i1 %37, label %38, label %60

38:                                               ; preds = %35
  %39 = load ptr, ptr %5, align 8, !tbaa !20
  %40 = call noalias ptr @CRYPTO_strdup(ptr noundef %39, ptr noundef @.str, i32 noundef 869)
  store ptr %40, ptr %8, align 8, !tbaa !20
  %41 = icmp eq ptr %40, null
  br i1 %41, label %42, label %43

42:                                               ; preds = %38
  br label %79

43:                                               ; preds = %38
  %44 = load ptr, ptr %8, align 8, !tbaa !20
  store ptr %44, ptr %9, align 8, !tbaa !20
  br label %45

45:                                               ; preds = %56, %43
  %46 = load ptr, ptr %9, align 8, !tbaa !20
  %47 = load i8, ptr %46, align 1, !tbaa !17
  %48 = icmp ne i8 %47, 0
  br i1 %48, label %49, label %59

49:                                               ; preds = %45
  %50 = load ptr, ptr %9, align 8, !tbaa !20
  %51 = load i8, ptr %50, align 1, !tbaa !17
  %52 = sext i8 %51 to i32
  %53 = call i32 @ossl_tolower(i32 noundef %52)
  %54 = trunc i32 %53 to i8
  %55 = load ptr, ptr %9, align 8, !tbaa !20
  store i8 %54, ptr %55, align 1, !tbaa !17
  br label %56

56:                                               ; preds = %49
  %57 = load ptr, ptr %9, align 8, !tbaa !20
  %58 = getelementptr inbounds nuw i8, ptr %57, i32 1
  store ptr %58, ptr %9, align 8, !tbaa !20
  br label %45, !llvm.loop !86

59:                                               ; preds = %45
  br label %60

60:                                               ; preds = %59, %35
  %61 = call noalias ptr @CRYPTO_malloc(i64 noundef 24, ptr noundef @.str, i32 noundef 874)
  store ptr %61, ptr %6, align 8, !tbaa !60
  %62 = load ptr, ptr %6, align 8, !tbaa !60
  %63 = icmp eq ptr %62, null
  br i1 %63, label %64, label %65

64:                                               ; preds = %60
  br label %79

65:                                               ; preds = %60
  %66 = load ptr, ptr %7, align 8, !tbaa !20
  %67 = load ptr, ptr %6, align 8, !tbaa !60
  %68 = getelementptr inbounds nuw %struct.mime_header_st, ptr %67, i32 0, i32 0
  store ptr %66, ptr %68, align 8, !tbaa !73
  %69 = load ptr, ptr %8, align 8, !tbaa !20
  %70 = load ptr, ptr %6, align 8, !tbaa !60
  %71 = getelementptr inbounds nuw %struct.mime_header_st, ptr %70, i32 0, i32 1
  store ptr %69, ptr %71, align 8, !tbaa !62
  %72 = call ptr @sk_MIME_PARAM_new(ptr noundef @mime_param_cmp)
  %73 = load ptr, ptr %6, align 8, !tbaa !60
  %74 = getelementptr inbounds nuw %struct.mime_header_st, ptr %73, i32 0, i32 2
  store ptr %72, ptr %74, align 8, !tbaa !71
  %75 = icmp eq ptr %72, null
  br i1 %75, label %76, label %77

76:                                               ; preds = %65
  br label %79

77:                                               ; preds = %65
  %78 = load ptr, ptr %6, align 8, !tbaa !60
  store ptr %78, ptr %3, align 8
  store i32 1, ptr %10, align 4
  br label %83

79:                                               ; preds = %76, %64, %42
  %80 = load ptr, ptr %7, align 8, !tbaa !20
  call void @CRYPTO_free(ptr noundef %80, ptr noundef @.str, i32 noundef 884)
  %81 = load ptr, ptr %8, align 8, !tbaa !20
  call void @CRYPTO_free(ptr noundef %81, ptr noundef @.str, i32 noundef 885)
  %82 = load ptr, ptr %6, align 8, !tbaa !60
  call void @CRYPTO_free(ptr noundef %82, ptr noundef @.str, i32 noundef 886)
  store ptr null, ptr %3, align 8
  store i32 1, ptr %10, align 4
  br label %83

83:                                               ; preds = %79, %77, %17
  call void @llvm.lifetime.end.p0(i64 8, ptr %9) #5
  call void @llvm.lifetime.end.p0(i64 8, ptr %8) #5
  call void @llvm.lifetime.end.p0(i64 8, ptr %7) #5
  call void @llvm.lifetime.end.p0(i64 8, ptr %6) #5
  %84 = load ptr, ptr %3, align 8
  ret ptr %84
}