; Function Attrs: nounwind uwtable
define internal fastcc ptr @mime_hdr_new(ptr noundef %0, ptr noundef %1) unnamed_addr #0 {
  %.not = icmp eq ptr %0, null
  br i1 %.not, label %.loopexit43, label %3

3:                                                ; preds = %2
  %4 = tail call noalias ptr @CRYPTO_strdup(ptr noundef nonnull %0, ptr noundef nonnull @.str, i32 noundef 863) #6
  %5 = icmp eq ptr %4, null
  br i1 %5, label %31, label %.preheader42

.preheader42:                                     ; preds = %3
  %6 = load i8, ptr %4, align 1, !tbaa !6
  %.not3944 = icmp eq i8 %6, 0
  br i1 %.not3944, label %.loopexit43, label %.lr.ph

.lr.ph:                                           ; preds = %.preheader42, %.lr.ph
  %7 = phi i8 [ %12, %.lr.ph ], [ %6, %.preheader42 ]
  %.045 = phi ptr [ %11, %.lr.ph ], [ %4, %.preheader42 ]
  %8 = sext i8 %7 to i32
  %9 = tail call i32 @ossl_tolower(i32 noundef %8) #6
  %10 = trunc i32 %9 to i8
  store i8 %10, ptr %.045, align 1, !tbaa !6
  %11 = getelementptr inbounds nuw i8, ptr %.045, i64 1
  %12 = load i8, ptr %11, align 1, !tbaa !6
  %.not39 = icmp eq i8 %12, 0
  br i1 %.not39, label %.loopexit43, label %.lr.ph, !llvm.loop !58

.loopexit43:                                      ; preds = %.lr.ph, %.preheader42, %2
  %.027 = phi ptr [ null, %2 ], [ %4, %.preheader42 ], [ %4, %.lr.ph ]
  %.not40 = icmp eq ptr %1, null
  br i1 %.not40, label %.loopexit, label %13

13:                                               ; preds = %.loopexit43
  %14 = tail call noalias ptr @CRYPTO_strdup(ptr noundef nonnull %1, ptr noundef nonnull @.str, i32 noundef 869) #6
  %15 = icmp eq ptr %14, null
  br i1 %15, label %30, label %.preheader

.preheader:                                       ; preds = %13
  %16 = load i8, ptr %14, align 1, !tbaa !6
  %.not4146 = icmp eq i8 %16, 0
  br i1 %.not4146, label %.loopexit, label %.lr.ph48

.lr.ph48:                                         ; preds = %.preheader, %.lr.ph48
  %17 = phi i8 [ %22, %.lr.ph48 ], [ %16, %.preheader ]
  %.147 = phi ptr [ %21, %.lr.ph48 ], [ %14, %.preheader ]
  %18 = sext i8 %17 to i32
  %19 = tail call i32 @ossl_tolower(i32 noundef %18) #6
  %20 = trunc i32 %19 to i8
  store i8 %20, ptr %.147, align 1, !tbaa !6
  %21 = getelementptr inbounds nuw i8, ptr %.147, i64 1
  %22 = load i8, ptr %21, align 1, !tbaa !6
  %.not41 = icmp eq i8 %22, 0
  br i1 %.not41, label %.loopexit, label %.lr.ph48, !llvm.loop !59

.loopexit:                                        ; preds = %.lr.ph48, %.preheader, %.loopexit43
  %.025 = phi ptr [ null, %.loopexit43 ], [ %14, %.preheader ], [ %14, %.lr.ph48 ]
  %23 = tail call noalias ptr @CRYPTO_malloc(i64 noundef 24, ptr noundef nonnull @.str, i32 noundef 874) #6
  %24 = icmp eq ptr %23, null
  br i1 %24, label %30, label %25

25:                                               ; preds = %.loopexit
  store ptr %.027, ptr %23, align 8, !tbaa !41
  %26 = getelementptr inbounds nuw i8, ptr %23, i64 8
  store ptr %.025, ptr %26, align 8, !tbaa !44
  %27 = tail call ptr @OPENSSL_sk_new(ptr noundef nonnull @mime_param_cmp) #6
  %28 = getelementptr inbounds nuw i8, ptr %23, i64 16
  store ptr %27, ptr %28, align 8, !tbaa !48
  %29 = icmp eq ptr %27, null
  br i1 %29, label %30, label %31

30:                                               ; preds = %25, %.loopexit, %13
  %.028 = phi ptr [ null, %13 ], [ null, %.loopexit ], [ %23, %25 ]
  %.126 = phi ptr [ null, %13 ], [ %.025, %.loopexit ], [ %.025, %25 ]
  tail call void @CRYPTO_free(ptr noundef %.027, ptr noundef nonnull @.str, i32 noundef 884) #6
  tail call void @CRYPTO_free(ptr noundef %.126, ptr noundef nonnull @.str, i32 noundef 885) #6
  tail call void @CRYPTO_free(ptr noundef %.028, ptr noundef nonnull @.str, i32 noundef 886) #6
  br label %31

31:                                               ; preds = %25, %3, %30
  %.029 = phi ptr [ null, %30 ], [ null, %3 ], [ %23, %25 ]
  ret ptr %.029
}